target datalayout = "e-m:e-p270:32:32-p271:32:32-p272:64:64-i64:64-i128:128-f80:128-n8:16:32:64-S128"
target triple = "x86_64-pc-linux-gnu"

%"class.icu_77::UnicodeString" = type { %"class.icu_77::Replaceable", %"union.icu_77::UnicodeString::StackBufferOrFields" }
%"class.icu_77::Replaceable" = type { %"class.icu_77::UObject" }
%"class.icu_77::UObject" = type { ptr }
%"union.icu_77::UnicodeString::StackBufferOrFields" = type { %struct.anon.0, [32 x i8] }
%struct.anon.0 = type { i16, i32, i32, ptr }
%"class.icu_77::CollationDataBuilder" = type { %"class.icu_77::UObject", ptr, ptr, ptr, ptr, %"class.icu_77::UVector32", %"class.icu_77::UVector64", %"class.icu_77::UVector", %"class.icu_77::UnicodeSet", %"class.icu_77::UnicodeString", i32, [4 x i8], %"class.icu_77::UnicodeSet", i8, i8, i8, ptr, ptr }
%"class.icu_77::UVector32" = type { %"class.icu_77::UObject", i32, i32, i32, ptr }
%"class.icu_77::UVector64" = type { %"class.icu_77::UObject", i32, i32, i32, ptr }
%"class.icu_77::UVector" = type { %"class.icu_77::UObject", i32, i32, ptr, ptr, ptr }
%"class.icu_77::UnicodeSet" = type <{ %"class.icu_77::UnicodeFilter", ptr, i32, i32, i8, [7 x i8], ptr, ptr, i32, [4 x i8], ptr, i32, [4 x i8], ptr, ptr, [25 x i32], [4 x i8] }>
%"class.icu_77::UnicodeFilter" = type { %"class.icu_77::UnicodeFunctor", %"class.icu_77::UnicodeMatcher" }
%"class.icu_77::UnicodeFunctor" = type { %"class.icu_77::UObject" }
%"class.icu_77::UnicodeMatcher" = type { ptr }
%struct.anon = type { i16, [27 x i16] }

@_ZTVN6icu_777UObjectE = available_externally unnamed_addr constant { [5 x ptr] } { [5 x ptr] [ptr null, ptr @_ZTIN6icu_777UObjectE, ptr @_ZN6icu_777UObjectD1Ev, ptr @_ZN6icu_777UObjectD0Ev, ptr @_ZNK6icu_777UObject17getDynamicClassIDEv] }, align 8

; Function Attrs: inlinehint mustprogress uwtable
define linkonce_odr noundef signext i8 @_ZN6icu_779UVector3214ensureCapacityEiR10UErrorCode(ptr noundef nonnull align 8 dereferenceable(32) %0, i32 noundef %1, ptr noundef nonnull align 4 dereferenceable(4) %2) #7 comdat align 2 {
  %4 = alloca i8, align 1
  %5 = alloca ptr, align 8
  %6 = alloca i32, align 4
  %7 = alloca ptr, align 8
  store ptr %0, ptr %5, align 8, !tbaa !104
  store i32 %1, ptr %6, align 4, !tbaa !57
  store ptr %2, ptr %7, align 8, !tbaa !8
  %8 = load ptr, ptr %5, align 8
  %9 = load i32, ptr %6, align 4, !tbaa !57
  %10 = icmp sge i32 %9, 0
  br i1 %10, label %11, label %17

11:                                               ; preds = %3
  %12 = getelementptr inbounds nuw %"class.icu_77::UVector32", ptr %8, i32 0, i32 2
  %13 = load i32, ptr %12, align 4, !tbaa !228
  %14 = load i32, ptr %6, align 4, !tbaa !57
  %15 = icmp sge i32 %13, %14
  br i1 %15, label %16, label %17

16:                                               ; preds = %11
  store i8 1, ptr %4, align 1
  br label %21

17:                                               ; preds = %11, %3
  %18 = load i32, ptr %6, align 4, !tbaa !57
  %19 = load ptr, ptr %7, align 8, !tbaa !8
  %20 = call noundef signext i8 @_ZN6icu_779UVector3214expandCapacityEiR10UErrorCode(ptr noundef nonnull align 8 dereferenceable(32) %8, i32 noundef %18, ptr noundef nonnull align 4 dereferenceable(4) %19)
  store i8 %20, ptr %4, align 1
  br label %21

21:                                               ; preds = %17, %16
  %22 = load i8, ptr %4, align 1
  ret i8 %22
}

; Function Attrs: inlinehint mustprogress nounwind uwtable
define linkonce_odr void @_ZN6icu_7711ReplaceableC2Ev(ptr noundef nonnull align 8 dereferenceable(8) %0) unnamed_addr #3 comdat align 2 {
  %2 = alloca ptr, align 8
  store ptr %0, ptr %2, align 8, !tbaa !226
  %3 = load ptr, ptr %2, align 8
  call void @_ZN6icu_777UObjectC2Ev(ptr noundef nonnull align 8 dereferenceable(8) %3) #11
  store ptr getelementptr inbounds inrange(-16, 88) ({ [13 x ptr] }, ptr @_ZTVN6icu_7711ReplaceableE, i32 0, i32 0, i32 2), ptr %3, align 8, !tbaa !15
  ret void
}

; Function Attrs: inlinehint mustprogress uwtable
define linkonce_odr void @_ZN6icu_779UVector3210addElementEiR10UErrorCode(ptr noundef nonnull align 8 dereferenceable(32) %0, i32 noundef %1, ptr noundef nonnull align 4 dereferenceable(4) %2) #7 comdat align 2 {
  %4 = alloca ptr, align 8
  %5 = alloca i32, align 4
  %6 = alloca ptr, align 8
  store ptr %0, ptr %4, align 8, !tbaa !104
  store i32 %1, ptr %5, align 4, !tbaa !57
  store ptr %2, ptr %6, align 8, !tbaa !8
  %7 = load ptr, ptr %4, align 8
  %8 = getelementptr inbounds nuw %"class.icu_77::UVector32", ptr %7, i32 0, i32 1
  %9 = load i32, ptr %8, align 8, !tbaa !139
  %10 = add nsw i32 %9, 1
  %11 = load ptr, ptr %6, align 8, !tbaa !8
  %12 = call noundef signext i8 @_ZN6icu_779UVector3214ensureCapacityEiR10UErrorCode(ptr noundef nonnull align 8 dereferenceable(32) %7, i32 noundef %10, ptr noundef nonnull align 4 dereferenceable(4) %11)
  %13 = icmp ne i8 %12, 0
  br i1 %13, label %14, label %25

14:                                               ; preds = %3
  %15 = load i32, ptr %5, align 4, !tbaa !57
  %16 = getelementptr inbounds nuw %"class.icu_77::UVector32", ptr %7, i32 0, i32 4
  %17 = load ptr, ptr %16, align 8, !tbaa !106
  %18 = getelementptr inbounds nuw %"class.icu_77::UVector32", ptr %7, i32 0, i32 1
  %19 = load i32, ptr %18, align 8, !tbaa !139
  %20 = sext i32 %19 to i64
  %21 = getelementptr inbounds i32, ptr %17, i64 %20
  store i32 %15, ptr %21, align 4, !tbaa !57
  %22 = getelementptr inbounds nuw %"class.icu_77::UVector32", ptr %7, i32 0, i32 1
  %23 = load i32, ptr %22, align 8, !tbaa !139
  %24 = add nsw i32 %23, 1
  store i32 %24, ptr %22, align 8, !tbaa !139
  br label %25

25:                                               ; preds = %14, %3
  ret void
}

; Function Attrs: inlinehint mustprogress uwtable
define linkonce_odr void @_ZN6icu_7713UnicodeStringC2Ev(ptr noundef nonnull align 8 dereferenceable(64) %0) unnamed_addr #7 comdat align 2 {
  %2 = alloca ptr, align 8
  store ptr %0, ptr %2, align 8, !tbaa !92
  %3 = load ptr, ptr %2, align 8
  call void @_ZN6icu_7711ReplaceableC2Ev(ptr noundef nonnull align 8 dereferenceable(8) %3)
  store ptr getelementptr inbounds inrange(-16, 88) ({ [13 x ptr] }, ptr @_ZTVN6icu_7713UnicodeStringE, i32 0, i32 0, i32 2), ptr %3, align 8, !tbaa !15
  %4 = getelementptr inbounds nuw %"class.icu_77::UnicodeString", ptr %3, i32 0, i32 1
  %5 = getelementptr inbounds nuw %struct.anon, ptr %4, i32 0, i32 0
  store i16 2, ptr %5, align 8, !tbaa !64
  ret void
}

; Function Attrs: inlinehint mustprogress nounwind uwtable
define linkonce_odr void @_ZN6icu_777UObjectC2Ev(ptr noundef nonnull align 8 dereferenceable(8) %0) unnamed_addr #3 comdat align 2 {
  %2 = alloca ptr, align 8
  store ptr %0, ptr %2, align 8, !tbaa !137
  %3 = load ptr, ptr %2, align 8
  store ptr getelementptr inbounds inrange(-16, 24) ({ [5 x ptr] }, ptr @_ZTVN6icu_777UObjectE, i32 0, i32 0, i32 2), ptr %3, align 8, !tbaa !15
  ret void
}

; Function Attrs: mustprogress uwtable
define void @_ZN6icu_7720CollationDataBuilderC2EaR10UErrorCode(ptr noundef nonnull align 8 dereferenceable(640) %0, i8 noundef signext %1, ptr noundef nonnull align 4 dereferenceable(4) %2) unnamed_addr #4 align 2 personality ptr @__gxx_personality_v0 {
  %4 = alloca ptr, align 8
  %5 = alloca i8, align 1
  %6 = alloca ptr, align 8
  %7 = alloca ptr, align 8
  %8 = alloca i32, align 4
  store ptr %0, ptr %4, align 8, !tbaa !13
  store i8 %1, ptr %5, align 1, !tbaa !64
  store ptr %2, ptr %6, align 8, !tbaa !8
  %9 = load ptr, ptr %4, align 8
  call void @_ZN6icu_777UObjectC2Ev(ptr noundef nonnull align 8 dereferenceable(8) %9) #11
  store ptr getelementptr inbounds inrange(-16, 48) ({ [8 x ptr] }, ptr @_ZTVN6icu_7720CollationDataBuilderE, i32 0, i32 0, i32 2), ptr %9, align 8, !tbaa !15
  %10 = getelementptr inbounds nuw %"class.icu_77::CollationDataBuilder", ptr %9, i32 0, i32 1
  %11 = load ptr, ptr %6, align 8, !tbaa !8
  %12 = invoke noundef ptr @_ZN6icu_7718Normalizer2Factory10getNFCImplER10UErrorCode(ptr noundef nonnull align 4 dereferenceable(4) %11)
          to label %13 unwind label %45

13:                                               ; preds = %3
  store ptr %12, ptr %10, align 8, !tbaa !72
  %14 = getelementptr inbounds nuw %"class.icu_77::CollationDataBuilder", ptr %9, i32 0, i32 2
  store ptr null, ptr %14, align 8, !tbaa !55
  %15 = getelementptr inbounds nuw %"class.icu_77::CollationDataBuilder", ptr %9, i32 0, i32 3
  store ptr null, ptr %15, align 8, !tbaa !132
  %16 = getelementptr inbounds nuw %"class.icu_77::CollationDataBuilder", ptr %9, i32 0, i32 4
  store ptr null, ptr %16, align 8, !tbaa !99
  %17 = getelementptr inbounds nuw %"class.icu_77::CollationDataBuilder", ptr %9, i32 0, i32 5
  %18 = load ptr, ptr %6, align 8, !tbaa !8
  invoke void @_ZN6icu_779UVector32C1ER10UErrorCode(ptr noundef nonnull align 8 dereferenceable(32) %17, ptr noundef nonnull align 4 dereferenceable(4) %18)
          to label %19 unwind label %45

19:                                               ; preds = %13
  %20 = getelementptr inbounds nuw %"class.icu_77::CollationDataBuilder", ptr %9, i32 0, i32 6
  %21 = load ptr, ptr %6, align 8, !tbaa !8
  invoke void @_ZN6icu_779UVector64C1ER10UErrorCode(ptr noundef nonnull align 8 dereferenceable(32) %20, ptr noundef nonnull align 4 dereferenceable(4) %21)
          to label %22 unwind label %49

22:                                               ; preds = %19
  %23 = getelementptr inbounds nuw %"class.icu_77::CollationDataBuilder", ptr %9, i32 0, i32 7
  %24 = load ptr, ptr %6, align 8, !tbaa !8
  invoke void @_ZN6icu_777UVectorC1ER10UErrorCode(ptr noundef nonnull align 8 dereferenceable(40) %23, ptr noundef nonnull align 4 dereferenceable(4) %24)
          to label %25 unwind label %53

25:                                               ; preds = %22
  %26 = getelementptr inbounds nuw %"class.icu_77::CollationDataBuilder", ptr %9, i32 0, i32 8
  invoke void @_ZN6icu_7710UnicodeSetC1Ev(ptr noundef nonnull align 8 dereferenceable(200) %26)
          to label %27 unwind label %57

27:                                               ; preds = %25
  %28 = getelementptr inbounds nuw %"class.icu_77::CollationDataBuilder", ptr %9, i32 0, i32 9
  invoke void @_ZN6icu_7713UnicodeStringC2Ev(ptr noundef nonnull align 8 dereferenceable(64) %28)
          to label %29 unwind label %61

29:                                               ; preds = %27
  %30 = getelementptr inbounds nuw %"class.icu_77::CollationDataBuilder", ptr %9, i32 0, i32 10
  store i32 0, ptr %30, align 8, !tbaa !122
  %31 = getelementptr inbounds nuw %"class.icu_77::CollationDataBuilder", ptr %9, i32 0, i32 12
  invoke void @_ZN6icu_7710UnicodeSetC1Ev(ptr noundef nonnull align 8 dereferenceable(200) %31)
          to label %32 unwind label %65

32:                                               ; preds = %29
  %33 = getelementptr inbounds nuw %"class.icu_77::CollationDataBuilder", ptr %9, i32 0, i32 13
  store i8 0, ptr %33, align 8, !tbaa !133
  %34 = getelementptr inbounds nuw %"class.icu_77::CollationDataBuilder", ptr %9, i32 0, i32 14
  %35 = load i8, ptr %5, align 1, !tbaa !64
  store i8 %35, ptr %34, align 1, !tbaa !128
  %36 = getelementptr inbounds nuw %"class.icu_77::CollationDataBuilder", ptr %9, i32 0, i32 15
  store i8 0, ptr %36, align 2, !tbaa !134
  %37 = getelementptr inbounds nuw %"class.icu_77::CollationDataBuilder", ptr %9, i32 0, i32 16
  store ptr null, ptr %37, align 8, !tbaa !135
  %38 = getelementptr inbounds nuw %"class.icu_77::CollationDataBuilder", ptr %9, i32 0, i32 17
  store ptr null, ptr %38, align 8, !tbaa !136
  %39 = load i8, ptr %5, align 1, !tbaa !64
  %40 = icmp ne i8 %39, 0
  br i1 %40, label %73, label %41

41:                                               ; preds = %32
  %42 = getelementptr inbounds nuw %"class.icu_77::CollationDataBuilder", ptr %9, i32 0, i32 5
  %43 = load ptr, ptr %6, align 8, !tbaa !8
  invoke void @_ZN6icu_779UVector3210addElementEiR10UErrorCode(ptr noundef nonnull align 8 dereferenceable(32) %42, i32 noundef 0, ptr noundef nonnull align 4 dereferenceable(4) %43)
          to label %44 unwind label %69

44:                                               ; preds = %41
  br label %73

45:                                               ; preds = %13, %3
  %46 = landingpad { ptr, i32 }
          cleanup
  %47 = extractvalue { ptr, i32 } %46, 0
  store ptr %47, ptr %7, align 8
  %48 = extractvalue { ptr, i32 } %46, 1
  store i32 %48, ptr %8, align 4
  br label %82

49:                                               ; preds = %19
  %50 = landingpad { ptr, i32 }
          cleanup
  %51 = extractvalue { ptr, i32 } %50, 0
  store ptr %51, ptr %7, align 8
  %52 = extractvalue { ptr, i32 } %50, 1
  store i32 %52, ptr %8, align 4
  br label %81

53:                                               ; preds = %22
  %54 = landingpad { ptr, i32 }
          cleanup
  %55 = extractvalue { ptr, i32 } %54, 0
  store ptr %55, ptr %7, align 8
  %56 = extractvalue { ptr, i32 } %54, 1
  store i32 %56, ptr %8, align 4
  br label %80

57:                                               ; preds = %25
  %58 = landingpad { ptr, i32 }
          cleanup
  %59 = extractvalue { ptr, i32 } %58, 0
  store ptr %59, ptr %7, align 8
  %60 = extractvalue { ptr, i32 } %58, 1
  store i32 %60, ptr %8, align 4
  br label %79

61:                                               ; preds = %27
  %62 = landingpad { ptr, i32 }
          cleanup
  %63 = extractvalue { ptr, i32 } %62, 0
  store ptr %63, ptr %7, align 8
  %64 = extractvalue { ptr, i32 } %62, 1
  store i32 %64, ptr %8, align 4
  br label %78

65:                                               ; preds = %29
  %66 = landingpad { ptr, i32 }
          cleanup
  %67 = extractvalue { ptr, i32 } %66, 0
  store ptr %67, ptr %7, align 8
  %68 = extractvalue { ptr, i32 } %66, 1
  store i32 %68, ptr %8, align 4
  br label %77

69:                                               ; preds = %73, %41
  %70 = landingpad { ptr, i32 }
          cleanup
  %71 = extractvalue { ptr, i32 } %70, 0
  store ptr %71, ptr %7, align 8
  %72 = extractvalue { ptr, i32 } %70, 1
  store i32 %72, ptr %8, align 4
  call void @_ZN6icu_7710UnicodeSetD1Ev(ptr noundef nonnull align 8 dereferenceable(200) %31) #11
  br label %77

73:                                               ; preds = %44, %32
  %74 = getelementptr inbounds nuw %"class.icu_77::CollationDataBuilder", ptr %9, i32 0, i32 7
  %75 = invoke noundef ptr @_ZN6icu_777UVector10setDeleterEPFvPvE(ptr noundef nonnull align 8 dereferenceable(40) %74, ptr noundef @uprv_deleteConditionalCE32_77)
          to label %76 unwind label %69

76:                                               ; preds = %73
  ret void

77:                                               ; preds = %69, %65
  call void @_ZN6icu_7713UnicodeStringD1Ev(ptr noundef nonnull align 8 dereferenceable(64) %28) #11
  br label %78

78:                                               ; preds = %77, %61
  call void @_ZN6icu_7710UnicodeSetD1Ev(ptr noundef nonnull align 8 dereferenceable(200) %26) #11
  br label %79

79:                                               ; preds = %78, %57
  call void @_ZN6icu_777UVectorD1Ev(ptr noundef nonnull align 8 dereferenceable(40) %23) #11
  br label %80

80:                                               ; preds = %79, %53
  call void @_ZN6icu_779UVector64D1Ev(ptr noundef nonnull align 8 dereferenceable(32) %20) #11
  br label %81

81:                                               ; preds = %80, %49
  call void @_ZN6icu_779UVector32D1Ev(ptr noundef nonnull align 8 dereferenceable(32) %17) #11
  br label %82

82:                                               ; preds = %81, %45
  call void @_ZN6icu_777UObjectD2Ev(ptr noundef nonnull align 8 dereferenceable(8) %9) #11
  br label %83

83:                                               ; preds = %82
  %84 = load ptr, ptr %7, align 8
  %85 = load i32, ptr %8, align 4
  %86 = insertvalue { ptr, i32 } poison, ptr %84, 0
  %87 = insertvalue { ptr, i32 } %86, i32 %85, 1
  resume { ptr, i32 } %87
}