; Function Attrs: mustprogress uwtable
define void @_ZN6icu_7720CollationDataBuilderC2EaR10UErrorCode(ptr noundef nonnull align 8 dereferenceable(640) initializes((0, 8)) %0, i8 noundef signext %1, ptr noundef nonnull align 4 dereferenceable(4) %2) unnamed_addr #6 align 2 personality ptr @__gxx_personality_v0 {
  store ptr getelementptr inbounds nuw inrange(-16, 48) (i8, ptr @_ZTVN6icu_7720CollationDataBuilderE, i64 16), ptr %0, align 8, !tbaa !33
  %4 = invoke noundef ptr @_ZN6icu_7718Normalizer2Factory10getNFCImplER10UErrorCode(ptr noundef nonnull align 4 dereferenceable(4) %2)
          to label %5 unwind label %40

5:                                                ; preds = %3
  %6 = getelementptr inbounds nuw i8, ptr %0, i64 8
  store ptr %4, ptr %6, align 8, !tbaa !55
  %7 = getelementptr inbounds nuw i8, ptr %0, i64 16
  %8 = getelementptr inbounds nuw i8, ptr %0, i64 40
  tail call void @llvm.memset.p0.i64(ptr noundef nonnull align 8 dereferenceable(24) %7, i8 0, i64 24, i1 false)
  invoke void @_ZN6icu_779UVector32C1ER10UErrorCode(ptr noundef nonnull align 8 dereferenceable(32) %8, ptr noundef nonnull align 4 dereferenceable(4) %2)
          to label %9 unwind label %40

9:                                                ; preds = %5
  %10 = getelementptr inbounds nuw i8, ptr %0, i64 72
  invoke void @_ZN6icu_779UVector64C1ER10UErrorCode(ptr noundef nonnull align 8 dereferenceable(32) %10, ptr noundef nonnull align 4 dereferenceable(4) %2)
          to label %11 unwind label %42

11:                                               ; preds = %9
  %12 = getelementptr inbounds nuw i8, ptr %0, i64 104
  invoke void @_ZN6icu_777UVectorC1ER10UErrorCode(ptr noundef nonnull align 8 dereferenceable(40) %12, ptr noundef nonnull align 4 dereferenceable(4) %2)
          to label %13 unwind label %44

13:                                               ; preds = %11
  %14 = getelementptr inbounds nuw i8, ptr %0, i64 144
  invoke void @_ZN6icu_7710UnicodeSetC1Ev(ptr noundef nonnull align 8 dereferenceable(200) %14)
          to label %15 unwind label %46

15:                                               ; preds = %13
  %16 = getelementptr inbounds nuw i8, ptr %0, i64 344
  store ptr getelementptr inbounds nuw inrange(-16, 88) (i8, ptr @_ZTVN6icu_7713UnicodeStringE, i64 16), ptr %16, align 8, !tbaa !33
  %17 = getelementptr inbounds nuw i8, ptr %0, i64 352
  store i16 2, ptr %17, align 8, !tbaa !74
  %18 = getelementptr inbounds nuw i8, ptr %0, i64 408
  store i32 0, ptr %18, align 8, !tbaa !95
  %19 = getelementptr inbounds nuw i8, ptr %0, i64 416
  invoke void @_ZN6icu_7710UnicodeSetC1Ev(ptr noundef nonnull align 8 dereferenceable(200) %19)
          to label %20 unwind label %48

20:                                               ; preds = %15
  %21 = getelementptr inbounds nuw i8, ptr %0, i64 616
  store i8 0, ptr %21, align 8, !tbaa !118
  %22 = getelementptr inbounds nuw i8, ptr %0, i64 617
  store i8 %1, ptr %22, align 1, !tbaa !116
  %23 = getelementptr inbounds nuw i8, ptr %0, i64 618
  store i8 0, ptr %23, align 2, !tbaa !119
  %24 = getelementptr inbounds nuw i8, ptr %0, i64 624
  %.not = icmp eq i8 %1, 0
  tail call void @llvm.memset.p0.i64(ptr noundef nonnull align 8 dereferenceable(16) %24, i8 0, i64 16, i1 false)
  br i1 %.not, label %25, label %_ZN6icu_779UVector3210addElementEiR10UErrorCode.exit

25:                                               ; preds = %20
  %26 = getelementptr inbounds nuw i8, ptr %0, i64 48
  %27 = load i32, ptr %26, align 8, !tbaa !120
  %28 = icmp slt i32 %27, -1
  %29 = getelementptr inbounds nuw i8, ptr %0, i64 52
  %30 = load i32, ptr %29, align 4
  %.not.i.i = icmp sle i32 %30, %27
  %or.cond.i.i = select i1 %28, i1 true, i1 %.not.i.i
  br i1 %or.cond.i.i, label %_ZN6icu_779UVector3214ensureCapacityEiR10UErrorCode.exit.i, label %_ZN6icu_779UVector3214ensureCapacityEiR10UErrorCode.exit.thread.i

_ZN6icu_779UVector3214ensureCapacityEiR10UErrorCode.exit.i: ; preds = %25
  %31 = add nsw i32 %27, 1
  %32 = invoke noundef signext i8 @_ZN6icu_779UVector3214expandCapacityEiR10UErrorCode(ptr noundef nonnull align 8 dereferenceable(32) %8, i32 noundef %31, ptr noundef nonnull align 4 dereferenceable(4) %2)
          to label %.noexc unwind label %50

.noexc:                                           ; preds = %_ZN6icu_779UVector3214ensureCapacityEiR10UErrorCode.exit.i
  %.not.i = icmp eq i8 %32, 0
  br i1 %.not.i, label %_ZN6icu_779UVector3210addElementEiR10UErrorCode.exit, label %_ZN6icu_779UVector3214ensureCapacityEiR10UErrorCode.exit._ZN6icu_779UVector3214ensureCapacityEiR10UErrorCode.exit.thread_crit_edge.i

_ZN6icu_779UVector3214ensureCapacityEiR10UErrorCode.exit._ZN6icu_779UVector3214ensureCapacityEiR10UErrorCode.exit.thread_crit_edge.i: ; preds = %.noexc
  %.pre.i = load i32, ptr %26, align 8, !tbaa !120
  br label %_ZN6icu_779UVector3214ensureCapacityEiR10UErrorCode.exit.thread.i

_ZN6icu_779UVector3214ensureCapacityEiR10UErrorCode.exit.thread.i: ; preds = %_ZN6icu_779UVector3214ensureCapacityEiR10UErrorCode.exit._ZN6icu_779UVector3214ensureCapacityEiR10UErrorCode.exit.thread_crit_edge.i, %25
  %33 = phi i32 [ %.pre.i, %_ZN6icu_779UVector3214ensureCapacityEiR10UErrorCode.exit._ZN6icu_779UVector3214ensureCapacityEiR10UErrorCode.exit.thread_crit_edge.i ], [ %27, %25 ]
  %34 = getelementptr inbounds nuw i8, ptr %0, i64 64
  %35 = load ptr, ptr %34, align 8, !tbaa !70
  %36 = sext i32 %33 to i64
  %37 = getelementptr inbounds i32, ptr %35, i64 %36
  store i32 0, ptr %37, align 4, !tbaa !66
  %38 = load i32, ptr %26, align 8, !tbaa !120
  %39 = add nsw i32 %38, 1
  store i32 %39, ptr %26, align 8, !tbaa !120
  br label %_ZN6icu_779UVector3210addElementEiR10UErrorCode.exit

40:                                               ; preds = %5, %3
  %41 = landingpad { ptr, i32 }
          cleanup
  br label %58

42:                                               ; preds = %9
  %43 = landingpad { ptr, i32 }
          cleanup
  br label %57

44:                                               ; preds = %11
  %45 = landingpad { ptr, i32 }
          cleanup
  br label %56

46:                                               ; preds = %13
  %47 = landingpad { ptr, i32 }
          cleanup
  br label %55

48:                                               ; preds = %15
  %49 = landingpad { ptr, i32 }
          cleanup
  br label %54

50:                                               ; preds = %_ZN6icu_779UVector3214ensureCapacityEiR10UErrorCode.exit.i, %_ZN6icu_779UVector3210addElementEiR10UErrorCode.exit
  %51 = landingpad { ptr, i32 }
          cleanup
  tail call void @_ZN6icu_7710UnicodeSetD1Ev(ptr noundef nonnull align 8 dereferenceable(200) %19) #19
  br label %54

_ZN6icu_779UVector3210addElementEiR10UErrorCode.exit: ; preds = %_ZN6icu_779UVector3214ensureCapacityEiR10UErrorCode.exit.thread.i, %.noexc, %20
  %52 = invoke noundef ptr @_ZN6icu_777UVector10setDeleterEPFvPvE(ptr noundef nonnull align 8 dereferenceable(40) %12, ptr noundef nonnull @uprv_deleteConditionalCE32_77)
          to label %53 unwind label %50

53:                                               ; preds = %_ZN6icu_779UVector3210addElementEiR10UErrorCode.exit
  ret void

54:                                               ; preds = %50, %48
  %.pn = phi { ptr, i32 } [ %51, %50 ], [ %49, %48 ]
  tail call void @_ZN6icu_7713UnicodeStringD1Ev(ptr noundef nonnull align 8 dereferenceable(64) %16) #19
  tail call void @_ZN6icu_7710UnicodeSetD1Ev(ptr noundef nonnull align 8 dereferenceable(200) %14) #19
  br label %55

55:                                               ; preds = %54, %46
  %.pn.pn.pn = phi { ptr, i32 } [ %.pn, %54 ], [ %47, %46 ]
  tail call void @_ZN6icu_777UVectorD1Ev(ptr noundef nonnull align 8 dereferenceable(40) %12) #19
  br label %56

56:                                               ; preds = %55, %44
  %.pn.pn.pn.pn = phi { ptr, i32 } [ %.pn.pn.pn, %55 ], [ %45, %44 ]
  tail call void @_ZN6icu_779UVector64D1Ev(ptr noundef nonnull align 8 dereferenceable(32) %10) #19
  br label %57

57:                                               ; preds = %56, %42
  %.pn.pn.pn.pn.pn = phi { ptr, i32 } [ %.pn.pn.pn.pn, %56 ], [ %43, %42 ]
  tail call void @_ZN6icu_779UVector32D1Ev(ptr noundef nonnull align 8 dereferenceable(32) %8) #19
  br label %58

58:                                               ; preds = %57, %40
  %.pn.pn.pn.pn.pn.pn = phi { ptr, i32 } [ %.pn.pn.pn.pn.pn, %57 ], [ %41, %40 ]
  tail call void @_ZN6icu_777UObjectD2Ev(ptr noundef nonnull align 8 dereferenceable(8) %0) #19
  resume { ptr, i32 } %.pn.pn.pn.pn.pn.pn
}